; Function Attrs: mustprogress nounwind uwtable
define void @_ZN7rocksdb15FileTraceWriterD2Ev(ptr noundef nonnull align 8 captures(none) dereferenceable(16) initializes((0, 8)) %0) unnamed_addr #1 align 2 personality ptr @__gxx_personality_v0 {
  store ptr getelementptr inbounds nuw inrange(-16, 40) (i8, ptr @_ZTVN7rocksdb15FileTraceWriterE, i64 16), ptr %0, align 8, !tbaa !18
  %2 = getelementptr inbounds nuw i8, ptr %0, i64 8
  %3 = load ptr, ptr %2, align 8, !tbaa !99, !noalias !101
  store ptr null, ptr %2, align 8, !tbaa !99, !noalias !101
  %.not.i.i.i = icmp eq ptr %3, null
  br i1 %.not.i.i.i, label %_ZNSt10unique_ptrIN7rocksdb18WritableFileWriterESt14default_deleteIS1_EED2Ev.exit, label %_ZN7rocksdb6StatusD2Ev.exit

_ZN7rocksdb6StatusD2Ev.exit:                      ; preds = %1
  tail call void @_ZN7rocksdb18WritableFileWriterD2Ev(ptr noundef nonnull align 8 dereferenceable(258) %3) #22, !noalias !101
  tail call void @_ZdlPvm(ptr noundef nonnull %3, i64 noundef 264) #20, !noalias !101
  %.pr = load ptr, ptr %2, align 8, !tbaa !99
  %.not.i = icmp eq ptr %.pr, null
  br i1 %.not.i, label %_ZNSt10unique_ptrIN7rocksdb18WritableFileWriterESt14default_deleteIS1_EED2Ev.exit, label %_ZNKSt14default_deleteIN7rocksdb18WritableFileWriterEEclEPS1_.exit.i

_ZNKSt14default_deleteIN7rocksdb18WritableFileWriterEEclEPS1_.exit.i: ; preds = %_ZN7rocksdb6StatusD2Ev.exit
  tail call void @_ZN7rocksdb18WritableFileWriterD2Ev(ptr noundef nonnull align 8 dereferenceable(258) %.pr) #22
  tail call void @_ZdlPvm(ptr noundef nonnull %.pr, i64 noundef 264) #20
  br label %_ZNSt10unique_ptrIN7rocksdb18WritableFileWriterESt14default_deleteIS1_EED2Ev.exit

_ZNSt10unique_ptrIN7rocksdb18WritableFileWriterESt14default_deleteIS1_EED2Ev.exit: ; preds = %1, %_ZN7rocksdb6StatusD2Ev.exit, %_ZNKSt14default_deleteIN7rocksdb18WritableFileWriterEEclEPS1_.exit.i
  store ptr null, ptr %2, align 8, !tbaa !99
  ret void
}